(lp1
S'https://se.indeed.com/rc/clk?jk=10147be7cd5d2abb'
p2
aS'https://se.indeed.com/rc/clk?jk=823c25fbe986627a'
p3
aS'https://se.indeed.com/rc/clk?jk=15bf9227c7ce72d5'
p4
aS'https://se.indeed.com/rc/clk?jk=36723c0274621c2f'
p5
aS'https://se.indeed.com/rc/clk?jk=4ca87b5edbfdcec9'
p6
aS'https://se.indeed.com/rc/clk?jk=b36bf4d6f82c4590'
p7
aS'https://se.indeed.com/rc/clk?jk=6474bcd75fdcd6ef'
p8
aS'https://se.indeed.com/rc/clk?jk=f2acc241e562b7fb'
p9
aS'https://se.indeed.com/rc/clk?jk=12a5e013834bfd95'
p10
aS'https://se.indeed.com/rc/clk?jk=e55489dfbae16370'
p11
aS'https://se.indeed.com/rc/clk?jk=f307a6bbc5301f86'
p12
aS'https://se.indeed.com/rc/clk?jk=d799a34ebfd144fe'
p13
aS'https://se.indeed.com/rc/clk?jk=e44a5e26a63e3a7f'
p14
aS'https://se.indeed.com/rc/clk?jk=855324e91eded947'
p15
aS'https://se.indeed.com/rc/clk?jk=faa5c7daf28485aa'
p16
aS'https://se.indeed.com/rc/clk?jk=10147be7cd5d2abb'
p17
aS'https://se.indeed.com/rc/clk?jk=160d4cbdc56f98ac'
p18
aS'https://se.indeed.com/rc/clk?jk=b2be303c9254d613'
p19
aS'https://se.indeed.com/rc/clk?jk=341e32705861a218'
p20
aS'https://se.indeed.com/rc/clk?jk=6c7046bd63b25856'
p21
aS'https://se.indeed.com/rc/clk?jk=e869a5508fcf82c0'
p22
aS'https://se.indeed.com/rc/clk?jk=f58ae6370888e02c'
p23
aS'https://se.indeed.com/rc/clk?jk=70883a6e27fbe794'
p24
aS'https://se.indeed.com/rc/clk?jk=4a002a2a280c5ae4'
p25
aS'https://se.indeed.com/rc/clk?jk=dbdb96233b513422'
p26
aS'https://se.indeed.com/rc/clk?jk=8be9cc4c9232cf91'
p27
aS'https://se.indeed.com/rc/clk?jk=a9375a4dd5dcfe04'
p28
aS'https://se.indeed.com/rc/clk?jk=88c071c6060d5a94'
p29
aS'https://se.indeed.com/rc/clk?jk=62aab6ee2c0e28a6'
p30
aS'https://se.indeed.com/rc/clk?jk=418b943f97bd754f'
p31
aS'https://se.indeed.com/rc/clk?jk=a91e52c6929cf916'
p32
aS'https://se.indeed.com/rc/clk?jk=3d5e2b981473e6d3'
p33
aS'https://se.indeed.com/rc/clk?jk=63205fd32f268f69'
p34
aS'https://se.indeed.com/rc/clk?jk=ccdbbe086f446c61'
p35
aS'https://se.indeed.com/rc/clk?jk=8a0813f355d88955'
p36
aS'https://se.indeed.com/rc/clk?jk=738abd28a5852c3a'
p37
aS'https://se.indeed.com/rc/clk?jk=a1ee44fc67ad23df'
p38
aS'https://se.indeed.com/rc/clk?jk=d4c813fb822ead33'
p39
aS'https://se.indeed.com/rc/clk?jk=ccecaac5b1723c0e'
p40
aS'https://se.indeed.com/rc/clk?jk=e09ffe836d4ee32b'
p41
aS'https://se.indeed.com/rc/clk?jk=423e32de39720379'
p42
aS'https://se.indeed.com/rc/clk?jk=f5acdb996e05cf46'
p43
aS'https://se.indeed.com/rc/clk?jk=7780822795fcd3ba'
p44
aS'https://se.indeed.com/rc/clk?jk=61c51615cc6a10ab'
p45
aS'https://se.indeed.com/rc/clk?jk=0fb857778f7d7ef9'
p46
aS'https://se.indeed.com/rc/clk?jk=9996cc22eb6e982a'
p47
aS'https://se.indeed.com/rc/clk?jk=3baff8aec750e0c8'
p48
aS'https://se.indeed.com/rc/clk?jk=0690aba5f93c619b'
p49
aS'https://se.indeed.com/rc/clk?jk=0d51f554af24f175'
p50
aS'https://se.indeed.com/rc/clk?jk=8540b5168e8156c9'
p51
aS'https://se.indeed.com/rc/clk?jk=7c9d800c3f9d9066'
p52
aS'https://se.indeed.com/rc/clk?jk=19cfe7f4cb55598f'
p53
aS'https://se.indeed.com/rc/clk?jk=3d4f0c339a8f6b7c'
p54
aS'https://se.indeed.com/rc/clk?jk=8553d1e065a987df'
p55
aS'https://se.indeed.com/rc/clk?jk=1138fd40bfb8c900'
p56
aS'https://se.indeed.com/rc/clk?jk=a261d551a2db75cb'
p57
aS'https://se.indeed.com/rc/clk?jk=45bf81ba3037173d'
p58
aS'https://se.indeed.com/rc/clk?jk=2c45b78c5518e81f'
p59
aS'https://se.indeed.com/rc/clk?jk=605514272a698388'
p60
aS'https://se.indeed.com/rc/clk?jk=318d9f924cb0b939'
p61
aS'https://se.indeed.com/rc/clk?jk=b00c3596a1354c4a'
p62
aS'https://se.indeed.com/rc/clk?jk=3df1968bd5e5d0a6'
p63
aS'https://se.indeed.com/rc/clk?jk=0187b5192603c835'
p64
aS'https://se.indeed.com/rc/clk?jk=037a4a6cef3b2deb'
p65
aS'https://se.indeed.com/rc/clk?jk=45bf81ba3037173d'
p66
aS'https://se.indeed.com/rc/clk?jk=333dcc488d76d47c'
p67
aS'https://se.indeed.com/rc/clk?jk=2c45b78c5518e81f'
p68
aS'https://se.indeed.com/rc/clk?jk=605514272a698388'
p69
aS'https://se.indeed.com/rc/clk?jk=318d9f924cb0b939'
p70
aS'https://se.indeed.com/rc/clk?jk=b00c3596a1354c4a'
p71
aS'https://se.indeed.com/rc/clk?jk=3df1968bd5e5d0a6'
p72
aS'https://se.indeed.com/rc/clk?jk=0187b5192603c835'
p73
aS'https://se.indeed.com/rc/clk?jk=037a4a6cef3b2deb'
p74
a.